target datalayout = "e-m:e-p270:32:32-p271:32:32-p272:64:64-i64:64-i128:128-f80:128-n8:16:32:64-S128"
target triple = "x86_64-unknown-linux-gnu"

%struct.RAMList = type { %struct.QemuMutex, ptr, %struct.anon, [3 x ptr], i32, %struct.anon.0 }
%struct.QemuMutex = type { %union.pthread_mutex_t, i8 }
%union.pthread_mutex_t = type { %struct.__pthread_mutex_s }
%struct.__pthread_mutex_s = type { i32, i32, i32, i32, i32, i16, i16, %struct.__pthread_internal_list }
%struct.__pthread_internal_list = type { ptr, ptr }
%struct.anon = type { ptr }
%struct.anon.0 = type { ptr }
%struct.rcu_head = type { ptr, ptr }
%struct.QemuEvent = type { i32, i8 }
%struct.DirtyMemoryBlocks = type { %struct.rcu_head, [0 x ptr] }
%struct.DirtyBitmapSnapshot = type { i64, i64, [0 x i64] }
%struct.rcu_reader_data = type { i64, i8, i32, %struct.anon.23, %struct.NotifierList }
%struct.anon.23 = type { ptr, ptr }
%struct.NotifierList = type { %struct.anon.24 }
%struct.anon.24 = type { ptr }

@ram_list = dso_local global %struct.RAMList zeroinitializer, align 8
@.str.1 = private unnamed_addr constant [25 x i8] c"../qemu/system/physmem.c\00", align 1
@tcg_allowed = external global i8, align 1
@__func__.cpu_physical_memory_snapshot_and_clear_dirty = private unnamed_addr constant [45 x i8] c"cpu_physical_memory_snapshot_and_clear_dirty\00", align 1
@.str.9 = private unnamed_addr constant [44 x i8] c"QEMU_IS_ALIGNED(ofs, (1 << BITS_PER_LEVEL))\00", align 1
@__PRETTY_FUNCTION__.cpu_physical_memory_snapshot_and_clear_dirty = private unnamed_addr constant [112 x i8] c"DirtyBitmapSnapshot *cpu_physical_memory_snapshot_and_clear_dirty(MemoryRegion *, hwaddr, hwaddr, unsigned int)\00", align 1
@.str.10 = private unnamed_addr constant [44 x i8] c"QEMU_IS_ALIGNED(num, (1 << BITS_PER_LEVEL))\00", align 1
@.str.125 = private unnamed_addr constant [97 x i8] c"/home/dtcxzyw/WorkSpace/Projects/compilers/llvm-opt-benchmark/bench/qemu/qemu/include/qemu/rcu.h\00", align 1
@__func__.rcu_read_lock = private unnamed_addr constant [14 x i8] c"rcu_read_lock\00", align 1
@rcu_gp_ctr = external global i64, align 8
@.str.126 = private unnamed_addr constant [25 x i8] c"p_rcu_reader->depth != 0\00", align 1
@__PRETTY_FUNCTION__.rcu_read_unlock = private unnamed_addr constant [27 x i8] c"void rcu_read_unlock(void)\00", align 1
@__func__.rcu_read_unlock = private unnamed_addr constant [16 x i8] c"rcu_read_unlock\00", align 1
@rcu_gp_event = external global %struct.QemuEvent, align 4

; Function Attrs: nounwind sspstrong uwtable
define internal void @rcu_read_unlock() #0 {
entry:
  %p_rcu_reader = alloca ptr, align 8
  %.atomictmp = alloca i64, align 8
  %tmp = alloca i8, align 1
  %atomic-temp = alloca i8, align 1
  %.atomictmp23 = alloca i8, align 1
  %call = call ptr @get_ptr_rcu_reader()
  store ptr %call, ptr %p_rcu_reader, align 8
  %0 = load ptr, ptr %p_rcu_reader, align 8
  %depth = getelementptr inbounds %struct.rcu_reader_data, ptr %0, i32 0, i32 2
  %1 = load i32, ptr %depth, align 4
  %cmp = icmp ne i32 %1, 0
  br i1 %cmp, label %if.then, label %if.else

if.then:                                          ; preds = %entry
  br label %if.end

if.else:                                          ; preds = %entry
  call void @__assert_fail(ptr noundef @.str.126, ptr noundef @.str.125, i32 noundef 101, ptr noundef @__PRETTY_FUNCTION__.rcu_read_unlock) #13
  unreachable

if.end:                                           ; preds = %if.then
  %2 = load ptr, ptr %p_rcu_reader, align 8
  %depth1 = getelementptr inbounds %struct.rcu_reader_data, ptr %2, i32 0, i32 2
  %3 = load i32, ptr %depth1, align 4
  %dec = add i32 %3, -1
  store i32 %dec, ptr %depth1, align 4
  %cmp2 = icmp ugt i32 %dec, 0
  br i1 %cmp2, label %if.then3, label %if.end4

if.then3:                                         ; preds = %if.end
  br label %if.end25

if.end4:                                          ; preds = %if.end
  br label %do.body

do.body:                                          ; preds = %if.end4
  br label %while.cond

while.cond:                                       ; preds = %do.end, %do.body
  br i1 false, label %while.body, label %while.end

while.body:                                       ; preds = %while.cond
  br label %do.body5

do.body5:                                         ; preds = %while.body
  call void @g_assertion_message_expr(ptr noundef null, ptr noundef @.str.125, i32 noundef 111, ptr noundef @__func__.rcu_read_unlock, ptr noundef null) #14
  unreachable

do.end:                                           ; No predecessors!
  br label %while.cond

while.end:                                        ; preds = %while.cond
  %4 = load ptr, ptr %p_rcu_reader, align 8
  %ctr = getelementptr inbounds %struct.rcu_reader_data, ptr %4, i32 0, i32 0
  store i64 0, ptr %.atomictmp, align 8
  %5 = load i64, ptr %.atomictmp, align 8
  store atomic i64 %5, ptr %ctr release, align 8
  br label %do.end6

do.end6:                                          ; preds = %while.end
  call void asm sideeffect "", "~{memory},~{dirflag},~{fpsr},~{flags}"() #15, !srcloc !61
  fence seq_cst
  br label %while.cond7

while.cond7:                                      ; preds = %do.end10, %do.end6
  br i1 false, label %while.body8, label %while.end11

while.body8:                                      ; preds = %while.cond7
  br label %do.body9

do.body9:                                         ; preds = %while.body8
  call void @g_assertion_message_expr(ptr noundef null, ptr noundef @.str.125, i32 noundef 115, ptr noundef @__func__.rcu_read_unlock, ptr noundef null) #14
  unreachable

do.end10:                                         ; No predecessors!
  br label %while.cond7

while.end11:                                      ; preds = %while.cond7
  %6 = load ptr, ptr %p_rcu_reader, align 8
  %waiting = getelementptr inbounds %struct.rcu_reader_data, ptr %6, i32 0, i32 1
  %7 = load atomic i8, ptr %waiting monotonic, align 8
  store i8 %7, ptr %atomic-temp, align 1
  %8 = load i8, ptr %atomic-temp, align 1
  %tobool = trunc i8 %8 to i1
  %frombool = zext i1 %tobool to i8
  store i8 %frombool, ptr %tmp, align 1
  %9 = load i8, ptr %tmp, align 1
  %tobool12 = trunc i8 %9 to i1
  %lnot = xor i1 %tobool12, true
  %lnot13 = xor i1 %lnot, true
  %lnot.ext = zext i1 %lnot13 to i32
  %conv = sext i32 %lnot.ext to i64
  %tobool14 = icmp ne i64 %conv, 0
  br i1 %tobool14, label %if.then15, label %if.end25

if.then15:                                        ; preds = %while.end11
  br label %do.body16

do.body16:                                        ; preds = %if.then15
  br label %while.cond17

while.cond17:                                     ; preds = %do.end20, %do.body16
  br i1 false, label %while.body18, label %while.end21

while.body18:                                     ; preds = %while.cond17
  br label %do.body19

do.body19:                                        ; preds = %while.body18
  call void @g_assertion_message_expr(ptr noundef null, ptr noundef @.str.125, i32 noundef 116, ptr noundef @__func__.rcu_read_unlock, ptr noundef null) #14
  unreachable

do.end20:                                         ; No predecessors!
  br label %while.cond17

while.end21:                                      ; preds = %while.cond17
  %10 = load ptr, ptr %p_rcu_reader, align 8
  %waiting22 = getelementptr inbounds %struct.rcu_reader_data, ptr %10, i32 0, i32 1
  store i8 0, ptr %.atomictmp23, align 1
  %11 = load i8, ptr %.atomictmp23, align 1
  store atomic i8 %11, ptr %waiting22 monotonic, align 8
  br label %do.end24

do.end24:                                         ; preds = %while.end21
  call void @qemu_event_set(ptr noundef @rcu_gp_event)
  br label %if.end25

if.end25:                                         ; preds = %do.end24, %while.end11, %if.then3
  ret void
}

; Function Attrs: nounwind sspstrong uwtable
define internal void @glib_autoptr_clear_RCUReadAuto(ptr noundef %_ptr) #0 {
entry:
  %_ptr.addr = alloca ptr, align 8
  store ptr %_ptr, ptr %_ptr.addr, align 8
  %0 = load ptr, ptr %_ptr.addr, align 8
  %tobool = icmp ne ptr %0, null
  br i1 %tobool, label %if.then, label %if.end

if.then:                                          ; preds = %entry
  %1 = load ptr, ptr %_ptr.addr, align 8
  call void @rcu_read_auto_unlock(ptr noundef %1)
  br label %if.end

if.end:                                           ; preds = %if.then, %entry
  ret void
}

; Function Attrs: nounwind sspstrong uwtable
define internal void @rcu_read_lock() #0 {
entry:
  %p_rcu_reader = alloca ptr, align 8
  %ctr = alloca i32, align 4
  %tmp = alloca i64, align 8
  %atomic-temp = alloca i64, align 8
  %.atomictmp = alloca i64, align 8
  %call = call ptr @get_ptr_rcu_reader()
  store ptr %call, ptr %p_rcu_reader, align 8
  %0 = load ptr, ptr %p_rcu_reader, align 8
  %depth = getelementptr inbounds %struct.rcu_reader_data, ptr %0, i32 0, i32 2
  %1 = load i32, ptr %depth, align 4
  %inc = add i32 %1, 1
  store i32 %inc, ptr %depth, align 4
  %cmp = icmp ugt i32 %1, 0
  br i1 %cmp, label %if.then, label %if.end

if.then:                                          ; preds = %entry
  br label %return

if.end:                                           ; preds = %entry
  br label %while.cond

while.cond:                                       ; preds = %do.end, %if.end
  br i1 false, label %while.body, label %while.end

while.body:                                       ; preds = %while.cond
  br label %do.body

do.body:                                          ; preds = %while.body
  call void @g_assertion_message_expr(ptr noundef null, ptr noundef @.str.125, i32 noundef 87, ptr noundef @__func__.rcu_read_lock, ptr noundef null) #14
  unreachable

do.end:                                           ; No predecessors!
  br label %while.cond

while.end:                                        ; preds = %while.cond
  %2 = load atomic i64, ptr @rcu_gp_ctr monotonic, align 8
  store i64 %2, ptr %atomic-temp, align 8
  %3 = load i64, ptr %atomic-temp, align 8
  store i64 %3, ptr %tmp, align 8
  %4 = load i64, ptr %tmp, align 8
  %conv = trunc i64 %4 to i32
  store i32 %conv, ptr %ctr, align 4
  br label %do.body1

do.body1:                                         ; preds = %while.end
  br label %while.cond2

while.cond2:                                      ; preds = %do.end5, %do.body1
  br i1 false, label %while.body3, label %while.end6

while.body3:                                      ; preds = %while.cond2
  br label %do.body4

do.body4:                                         ; preds = %while.body3
  call void @g_assertion_message_expr(ptr noundef null, ptr noundef @.str.125, i32 noundef 88, ptr noundef @__func__.rcu_read_lock, ptr noundef null) #14
  unreachable

do.end5:                                          ; No predecessors!
  br label %while.cond2

while.end6:                                       ; preds = %while.cond2
  %5 = load ptr, ptr %p_rcu_reader, align 8
  %ctr7 = getelementptr inbounds %struct.rcu_reader_data, ptr %5, i32 0, i32 0
  %6 = load i32, ptr %ctr, align 4
  %conv8 = zext i32 %6 to i64
  store i64 %conv8, ptr %.atomictmp, align 8
  %7 = load i64, ptr %.atomictmp, align 8
  store atomic i64 %7, ptr %ctr7 monotonic, align 8
  br label %do.end9

do.end9:                                          ; preds = %while.end6
  call void asm sideeffect "", "~{memory},~{dirflag},~{fpsr},~{flags}"() #15, !srcloc !60
  fence seq_cst
  br label %return

return:                                           ; preds = %do.end9, %if.then
  ret void
}

; Function Attrs: nounwind sspstrong uwtable
define internal void @rcu_read_auto_unlock(ptr noundef %r) #0 {
entry:
  %r.addr = alloca ptr, align 8
  store ptr %r, ptr %r.addr, align 8
  call void @rcu_read_unlock()
  ret void
}

; Function Attrs: nounwind sspstrong uwtable
define internal void @glib_autoptr_cleanup_RCUReadAuto(ptr noundef %_ptr) #0 {
entry:
  %_ptr.addr = alloca ptr, align 8
  store ptr %_ptr, ptr %_ptr.addr, align 8
  %0 = load ptr, ptr %_ptr.addr, align 8
  %1 = load ptr, ptr %0, align 8
  call void @glib_autoptr_clear_RCUReadAuto(ptr noundef %1)
  ret void
}

; Function Attrs: nounwind sspstrong uwtable
define internal ptr @rcu_read_auto_lock() #0 {
entry:
  call void @rcu_read_lock()
  %0 = inttoptr i64 1 to ptr
  ret ptr %0
}

; Function Attrs: nounwind sspstrong uwtable
define dso_local ptr @cpu_physical_memory_snapshot_and_clear_dirty(ptr noundef %mr, i64 noundef %offset, i64 noundef %length, i32 noundef %client) #0 {
entry:
  %mr.addr = alloca ptr, align 8
  %offset.addr = alloca i64, align 8
  %length.addr = alloca i64, align 8
  %client.addr = alloca i32, align 4
  %blocks = alloca ptr, align 8
  %start = alloca i64, align 8
  %align = alloca i64, align 8
  %first = alloca i64, align 8
  %last = alloca i64, align 8
  %snap = alloca ptr, align 8
  %page = alloca i64, align 8
  %end = alloca i64, align 8
  %dest = alloca i64, align 8
  %_rcu_read_auto35 = alloca ptr, align 8
  %_val36 = alloca ptr, align 8
  %tmp = alloca ptr, align 8
  %idx = alloca i64, align 8
  %ofs = alloca i64, align 8
  %num = alloca i64, align 8
  %_a37 = alloca i64, align 8
  %_b38 = alloca i64, align 8
  %tmp18 = alloca i64, align 8
  store ptr %mr, ptr %mr.addr, align 8
  store i64 %offset, ptr %offset.addr, align 8
  store i64 %length, ptr %length.addr, align 8
  store i32 %client, ptr %client.addr, align 4
  %0 = load ptr, ptr %mr.addr, align 8
  %call = call i64 @memory_region_get_ram_addr(ptr noundef %0)
  %1 = load i64, ptr %offset.addr, align 8
  %add = add i64 %call, %1
  store i64 %add, ptr %start, align 8
  store i64 262144, ptr %align, align 8
  %2 = load i64, ptr %start, align 8
  %3 = load i64, ptr %align, align 8
  %div = udiv i64 %2, %3
  %4 = load i64, ptr %align, align 8
  %mul = mul i64 %div, %4
  store i64 %mul, ptr %first, align 8
  %5 = load i64, ptr %start, align 8
  %6 = load i64, ptr %length.addr, align 8
  %add1 = add i64 %5, %6
  %7 = load i64, ptr %align, align 8
  %add2 = add i64 %add1, %7
  %sub = sub i64 %add2, 1
  %8 = load i64, ptr %align, align 8
  %div3 = udiv i64 %sub, %8
  %9 = load i64, ptr %align, align 8
  %mul4 = mul i64 %div3, %9
  store i64 %mul4, ptr %last, align 8
  %10 = load i64, ptr %last, align 8
  %11 = load i64, ptr %first, align 8
  %sub5 = sub i64 %10, %11
  %shr = lshr i64 %sub5, 15
  %add6 = add i64 16, %shr
  %call7 = call noalias ptr @g_malloc0(i64 noundef %add6) #17
  store ptr %call7, ptr %snap, align 8
  %12 = load i64, ptr %first, align 8
  %13 = load ptr, ptr %snap, align 8
  %start8 = getelementptr inbounds %struct.DirtyBitmapSnapshot, ptr %13, i32 0, i32 0
  store i64 %12, ptr %start8, align 8
  %14 = load i64, ptr %last, align 8
  %15 = load ptr, ptr %snap, align 8
  %end9 = getelementptr inbounds %struct.DirtyBitmapSnapshot, ptr %15, i32 0, i32 1
  store i64 %14, ptr %end9, align 8
  %16 = load i64, ptr %first, align 8
  %shr10 = lshr i64 %16, 12
  store i64 %shr10, ptr %page, align 8
  %17 = load i64, ptr %last, align 8
  %shr11 = lshr i64 %17, 12
  store i64 %shr11, ptr %end, align 8
  store i64 0, ptr %dest, align 8
  %call12 = call ptr @rcu_read_auto_lock()
  store ptr %call12, ptr %_rcu_read_auto35, align 8
  br label %for.cond

for.cond:                                         ; preds = %for.inc, %entry
  %18 = load ptr, ptr %_rcu_read_auto35, align 8
  %tobool = icmp ne ptr %18, null
  br i1 %tobool, label %for.body, label %for.cond.cleanup

for.cond.cleanup:                                 ; preds = %for.cond
  call void @glib_autoptr_cleanup_RCUReadAuto(ptr noundef %_rcu_read_auto35)
  br label %for.end

for.body:                                         ; preds = %for.cond
  br label %while.cond

while.cond:                                       ; preds = %do.end, %for.body
  br i1 false, label %while.body, label %while.end

while.body:                                       ; preds = %while.cond
  br label %do.body

do.body:                                          ; preds = %while.body
  call void @g_assertion_message_expr(ptr noundef null, ptr noundef @.str.1, i32 noundef 912, ptr noundef @__func__.cpu_physical_memory_snapshot_and_clear_dirty, ptr noundef null) #14
  unreachable

do.cond:                                          ; No predecessors!
  br label %do.end

do.end:                                           ; preds = %do.cond
  br label %while.cond

while.end:                                        ; preds = %while.cond
  %19 = load i32, ptr %client.addr, align 4
  %idxprom = zext i32 %19 to i64
  %20 = getelementptr inbounds %struct.RAMList, ptr @ram_list, i32 0, i32 3
  %arrayidx = getelementptr [3 x ptr], ptr %20, i64 0, i64 %idxprom
  %21 = load atomic i64, ptr %arrayidx monotonic, align 8
  store i64 %21, ptr %_val36, align 8
  call void asm sideeffect "", "~{memory},~{dirflag},~{fpsr},~{flags}"() #15, !srcloc !20
  %22 = load ptr, ptr %_val36, align 8
  store ptr %22, ptr %tmp, align 8
  %23 = load ptr, ptr %tmp, align 8
  store ptr %23, ptr %blocks, align 8
  br label %while.cond13

while.cond13:                                     ; preds = %if.end26, %while.end
  %24 = load i64, ptr %page, align 8
  %25 = load i64, ptr %end, align 8
  %cmp = icmp ult i64 %24, %25
  br i1 %cmp, label %while.body14, label %while.end34

while.body14:                                     ; preds = %while.cond13
  %26 = load i64, ptr %page, align 8
  %div15 = udiv i64 %26, 2097152
  store i64 %div15, ptr %idx, align 8
  %27 = load i64, ptr %page, align 8
  %rem = urem i64 %27, 2097152
  store i64 %rem, ptr %ofs, align 8
  %28 = load i64, ptr %end, align 8
  %29 = load i64, ptr %page, align 8
  %sub16 = sub i64 %28, %29
  store i64 %sub16, ptr %_a37, align 8
  %30 = load i64, ptr %ofs, align 8
  %sub17 = sub i64 2097152, %30
  store i64 %sub17, ptr %_b38, align 8
  %31 = load i64, ptr %_a37, align 8
  %32 = load i64, ptr %_b38, align 8
  %cmp19 = icmp ult i64 %31, %32
  br i1 %cmp19, label %cond.true, label %cond.false

cond.true:                                        ; preds = %while.body14
  %33 = load i64, ptr %_a37, align 8
  br label %cond.end

cond.false:                                       ; preds = %while.body14
  %34 = load i64, ptr %_b38, align 8
  br label %cond.end

cond.end:                                         ; preds = %cond.false, %cond.true
  %cond = phi i64 [ %33, %cond.true ], [ %34, %cond.false ]
  store i64 %cond, ptr %tmp18, align 8
  %35 = load i64, ptr %tmp18, align 8
  store i64 %35, ptr %num, align 8
  %36 = load i64, ptr %ofs, align 8
  %rem20 = urem i64 %36, 64
  %cmp21 = icmp eq i64 %rem20, 0
  br i1 %cmp21, label %if.then, label %if.else

if.then:                                          ; preds = %cond.end
  br label %if.end

if.else:                                          ; preds = %cond.end
  call void @__assert_fail(ptr noundef @.str.9, ptr noundef @.str.1, i32 noundef 920, ptr noundef @__PRETTY_FUNCTION__.cpu_physical_memory_snapshot_and_clear_dirty) #13
  unreachable

if.end:                                           ; preds = %if.then
  %37 = load i64, ptr %num, align 8
  %rem22 = urem i64 %37, 64
  %cmp23 = icmp eq i64 %rem22, 0
  br i1 %cmp23, label %if.then24, label %if.else25

if.then24:                                        ; preds = %if.end
  br label %if.end26

if.else25:                                        ; preds = %if.end
  call void @__assert_fail(ptr noundef @.str.10, ptr noundef @.str.1, i32 noundef 921, ptr noundef @__PRETTY_FUNCTION__.cpu_physical_memory_snapshot_and_clear_dirty) #13
  unreachable

if.end26:                                         ; preds = %if.then24
  %38 = load i64, ptr %ofs, align 8
  %shr27 = lshr i64 %38, 6
  store i64 %shr27, ptr %ofs, align 8
  %39 = load ptr, ptr %snap, align 8
  %dirty = getelementptr inbounds %struct.DirtyBitmapSnapshot, ptr %39, i32 0, i32 2
  %arraydecay = getelementptr inbounds [0 x i64], ptr %dirty, i64 0, i64 0
  %40 = load i64, ptr %dest, align 8
  %add.ptr = getelementptr i64, ptr %arraydecay, i64 %40
  %41 = load ptr, ptr %blocks, align 8
  %blocks28 = getelementptr inbounds %struct.DirtyMemoryBlocks, ptr %41, i32 0, i32 1
  %42 = load i64, ptr %idx, align 8
  %arrayidx29 = getelementptr [0 x ptr], ptr %blocks28, i64 0, i64 %42
  %43 = load ptr, ptr %arrayidx29, align 8
  %44 = load i64, ptr %ofs, align 8
  %add.ptr30 = getelementptr i64, ptr %43, i64 %44
  %45 = load i64, ptr %num, align 8
  call void @bitmap_copy_and_clear_atomic(ptr noundef %add.ptr, ptr noundef %add.ptr30, i64 noundef %45)
  %46 = load i64, ptr %num, align 8
  %47 = load i64, ptr %page, align 8
  %add31 = add i64 %47, %46
  store i64 %add31, ptr %page, align 8
  %48 = load i64, ptr %num, align 8
  %shr32 = lshr i64 %48, 6
  %49 = load i64, ptr %dest, align 8
  %add33 = add i64 %49, %shr32
  store i64 %add33, ptr %dest, align 8
  br label %while.cond13, !llvm.loop !21

while.end34:                                      ; preds = %while.cond13
  br label %for.inc

for.inc:                                          ; preds = %while.end34
  %50 = load ptr, ptr %_rcu_read_auto35, align 8
  call void @rcu_read_auto_unlock(ptr noundef %50)
  store ptr null, ptr %_rcu_read_auto35, align 8
  br label %for.cond, !llvm.loop !22

for.end:                                          ; preds = %for.cond.cleanup
  %51 = load i8, ptr @tcg_allowed, align 1
  %tobool35 = trunc i8 %51 to i1
  br i1 %tobool35, label %if.then36, label %if.end37

if.then36:                                        ; preds = %for.end
  %52 = load i64, ptr %start, align 8
  %53 = load i64, ptr %length.addr, align 8
  call void @tlb_reset_dirty_range_all(i64 noundef %52, i64 noundef %53)
  br label %if.end37

if.end37:                                         ; preds = %if.then36, %for.end
  %54 = load ptr, ptr %mr.addr, align 8
  %55 = load i64, ptr %offset.addr, align 8
  %56 = load i64, ptr %length.addr, align 8
  call void @memory_region_clear_dirty_bitmap(ptr noundef %54, i64 noundef %55, i64 noundef %56)
  %57 = load ptr, ptr %snap, align 8
  ret ptr %57
}