; Function Attrs: nounwind sspstrong uwtable
define dso_local noundef ptr @cpu_physical_memory_snapshot_and_clear_dirty(ptr noundef %mr, i64 noundef %offset, i64 noundef %length, i32 noundef %client) local_unnamed_addr #0 {
entry:
  %call = tail call i64 @memory_region_get_ram_addr(ptr noundef %mr) #28
  %add = add i64 %call, %offset
  %div32 = and i64 %add, -262144
  %add1 = add i64 %length, 262143
  %sub = add i64 %add1, %add
  %div333 = and i64 %sub, -262144
  %sub5 = sub i64 %div333, %div32
  %shr = lshr exact i64 %sub5, 15
  %add6 = add nuw nsw i64 %shr, 16
  %call7 = tail call noalias ptr @g_malloc0(i64 noundef %add6) #31
  store i64 %div32, ptr %call7, align 8
  %end9 = getelementptr inbounds nuw i8, ptr %call7, i64 8
  store i64 %div333, ptr %end9, align 8
  %shr10 = lshr exact i64 %div32, 12
  %shr11 = lshr exact i64 %div333, 12
  %call.i.i = tail call ptr @get_ptr_rcu_reader() #28
  %depth.i.i = getelementptr inbounds nuw i8, ptr %call.i.i, i64 12
  %0 = load i32, ptr %depth.i.i, align 4
  %inc.i.i = add i32 %0, 1
  store i32 %inc.i.i, ptr %depth.i.i, align 4
  %cmp.not.i.i = icmp eq i32 %0, 0
  br i1 %cmp.not.i.i, label %while.end.i.i, label %rcu_read_auto_lock.exit

while.end.i.i:                                    ; preds = %entry
  %1 = load atomic i64, ptr @rcu_gp_ctr monotonic, align 8
  %conv8.i.i = and i64 %1, 4294967295
  store atomic i64 %conv8.i.i, ptr %call.i.i monotonic, align 8
  tail call void asm sideeffect "", "~{memory},~{dirflag},~{fpsr},~{flags}"() #28, !srcloc !15
  fence seq_cst
  br label %rcu_read_auto_lock.exit

rcu_read_auto_lock.exit:                          ; preds = %entry, %while.end.i.i
  %idxprom = zext i32 %client to i64
  %arrayidx = getelementptr [3 x ptr], ptr getelementptr inbounds nuw (i8, ptr @ram_list, i64 64), i64 0, i64 %idxprom
  %dirty = getelementptr inbounds nuw i8, ptr %call7, i64 16
  %2 = load atomic i64, ptr %arrayidx monotonic, align 8
  tail call void asm sideeffect "", "~{memory},~{dirflag},~{fpsr},~{flags}"() #28, !srcloc !26
  %cmp41 = icmp samesign ult i64 %shr10, %shr11
  br i1 %cmp41, label %while.body14.lr.ph, label %for.inc

while.body14.lr.ph:                               ; preds = %rcu_read_auto_lock.exit
  %3 = inttoptr i64 %2 to ptr
  %blocks28 = getelementptr inbounds nuw i8, ptr %3, i64 16
  br label %if.end26

if.end26:                                         ; preds = %if.end26, %while.body14.lr.ph
  %page.143 = phi i64 [ %shr10, %while.body14.lr.ph ], [ %add31, %if.end26 ]
  %dest.142 = phi i64 [ 0, %while.body14.lr.ph ], [ %add33, %if.end26 ]
  %sub16 = sub nuw nsw i64 %shr11, %page.143
  %rem = and i64 %page.143, 2097088
  %sub17 = sub nuw nsw i64 2097152, %rem
  %cond = tail call i64 @llvm.umin.i64(i64 %sub16, i64 %sub17)
  %div1534 = lshr i64 %page.143, 21
  %add.ptr = getelementptr i64, ptr %dirty, i64 %dest.142
  %arrayidx29 = getelementptr [0 x ptr], ptr %blocks28, i64 0, i64 %div1534
  %4 = load ptr, ptr %arrayidx29, align 8
  %5 = lshr exact i64 %rem, 3
  %add.ptr30 = getelementptr i8, ptr %4, i64 %5
  tail call void @bitmap_copy_and_clear_atomic(ptr noundef %add.ptr, ptr noundef %add.ptr30, i64 noundef %cond) #28
  %add31 = add nuw nsw i64 %cond, %page.143
  %shr32 = lshr exact i64 %cond, 6
  %add33 = add i64 %shr32, %dest.142
  %cmp = icmp samesign ult i64 %add31, %shr11
  br i1 %cmp, label %if.end26, label %for.inc, !llvm.loop !27

for.inc:                                          ; preds = %if.end26, %rcu_read_auto_lock.exit
  %call.i.i35 = tail call ptr @get_ptr_rcu_reader() #28
  %depth.i.i36 = getelementptr inbounds nuw i8, ptr %call.i.i35, i64 12
  %6 = load i32, ptr %depth.i.i36, align 4
  %cmp.not.i.i37 = icmp eq i32 %6, 0
  br i1 %cmp.not.i.i37, label %if.else.i.i, label %if.end.i.i

if.else.i.i:                                      ; preds = %for.inc
  tail call void @__assert_fail(ptr noundef nonnull @.str.126, ptr noundef nonnull @.str.125, i32 noundef 101, ptr noundef nonnull @__PRETTY_FUNCTION__.rcu_read_unlock) #27
  unreachable

if.end.i.i:                                       ; preds = %for.inc
  %dec.i.i = add i32 %6, -1
  store i32 %dec.i.i, ptr %depth.i.i36, align 4
  %cmp2.not.i.i = icmp eq i32 %dec.i.i, 0
  br i1 %cmp2.not.i.i, label %while.end.i.i38, label %rcu_read_auto_unlock.exit

while.end.i.i38:                                  ; preds = %if.end.i.i
  store atomic i64 0, ptr %call.i.i35 release, align 8
  tail call void asm sideeffect "", "~{memory},~{dirflag},~{fpsr},~{flags}"() #28, !srcloc !22
  fence seq_cst
  %waiting.i.i = getelementptr inbounds nuw i8, ptr %call.i.i35, i64 8
  %7 = load atomic i8, ptr %waiting.i.i monotonic, align 8
  %tobool.i.i = trunc i8 %7 to i1
  br i1 %tobool.i.i, label %while.end21.i.i, label %rcu_read_auto_unlock.exit

while.end21.i.i:                                  ; preds = %while.end.i.i38
  store atomic i8 0, ptr %waiting.i.i monotonic, align 8
  tail call void @qemu_event_set(ptr noundef nonnull @rcu_gp_event) #28
  br label %rcu_read_auto_unlock.exit

rcu_read_auto_unlock.exit:                        ; preds = %if.end.i.i, %while.end.i.i38, %while.end21.i.i
  %8 = load i8, ptr @tcg_allowed, align 1
  %tobool35 = trunc i8 %8 to i1
  br i1 %tobool35, label %if.then36, label %if.end37

if.then36:                                        ; preds = %rcu_read_auto_unlock.exit
  tail call fastcc void @tlb_reset_dirty_range_all(i64 noundef %add, i64 noundef %length)
  br label %if.end37

if.end37:                                         ; preds = %if.then36, %rcu_read_auto_unlock.exit
  tail call void @memory_region_clear_dirty_bitmap(ptr noundef %mr, i64 noundef %offset, i64 noundef %length) #28
  ret ptr %call7
}